; Function Attrs: mustprogress uwtable
define hidden void @_ZN4cvc58internal9ProofNodeC2ENS_9ProofRuleERKSt6vectorISt10shared_ptrIS1_ESaIS5_EERKS3_INS0_12NodeTemplateILb1EEESaISB_EE(ptr noundef nonnull align 8 dereferenceable(65) initializes((8, 56)) %0, i32 noundef %1, ptr noundef nonnull align 8 dereferenceable(24) %2, ptr noundef nonnull align 8 dereferenceable(24) %3) unnamed_addr #3 align 2 personality ptr @__gxx_personality_v0 {
  %5 = getelementptr inbounds nuw i8, ptr %0, i64 8
  %6 = getelementptr inbounds nuw i8, ptr %0, i64 32
  %7 = getelementptr inbounds nuw i8, ptr %0, i64 56
  tail call void @llvm.memset.p0.i64(ptr noundef nonnull align 8 dereferenceable(48) %5, i8 0, i64 48, i1 false)
  %8 = load atomic i8, ptr @_ZGVZN4cvc58internal4expr9NodeValue4nullEvE6s_null acquire, align 8
  %9 = icmp eq i8 %8, 0
  br i1 %9, label %10, label %18, !prof !3

10:                                               ; preds = %4
  %11 = tail call i32 @__cxa_guard_acquire(ptr nonnull @_ZGVZN4cvc58internal4expr9NodeValue4nullEvE6s_null) #23
  %.not.i.i = icmp eq i32 %11, 0
  br i1 %.not.i.i, label %18, label %12

12:                                               ; preds = %10
  %13 = invoke noalias noundef nonnull dereferenceable(24) ptr @_Znwm(i64 noundef 24) #24
          to label %14 unwind label %16

14:                                               ; preds = %12
  store i64 1152920405095219200, ptr %13, align 8
  %15 = getelementptr inbounds nuw i8, ptr %13, i64 8
  tail call void @llvm.memset.p0.i64(ptr noundef nonnull align 8 dereferenceable(16) %15, i8 0, i64 16, i1 false)
  store ptr %13, ptr @_ZZN4cvc58internal4expr9NodeValue4nullEvE6s_null, align 8, !tbaa !4
  tail call void @__cxa_guard_release(ptr nonnull @_ZGVZN4cvc58internal4expr9NodeValue4nullEvE6s_null) #23
  br label %18

16:                                               ; preds = %12
  %17 = landingpad { ptr, i32 }
          cleanup
  tail call void @__cxa_guard_abort(ptr nonnull @_ZGVZN4cvc58internal4expr9NodeValue4nullEvE6s_null) #23
  br label %.body

18:                                               ; preds = %14, %10, %4
  %19 = load ptr, ptr @_ZZN4cvc58internal4expr9NodeValue4nullEvE6s_null, align 8, !tbaa !4
  store ptr %19, ptr %7, align 8, !tbaa !9
  %20 = getelementptr inbounds nuw i8, ptr %0, i64 64
  store i8 0, ptr %20, align 8, !tbaa !11
  store i32 %1, ptr %0, align 8, !tbaa !25
  %21 = invoke noundef nonnull align 8 dereferenceable(24) ptr @_ZNSt6vectorISt10shared_ptrIN4cvc58internal9ProofNodeEESaIS4_EEaSERKS6_(ptr noundef nonnull align 8 dereferenceable(24) %5, ptr noundef nonnull align 8 dereferenceable(24) %2)
          to label %.noexc unwind label %23

.noexc:                                           ; preds = %18
  %22 = invoke noundef nonnull align 8 dereferenceable(24) ptr @_ZNSt6vectorIN4cvc58internal12NodeTemplateILb1EEESaIS3_EEaSERKS5_(ptr noundef nonnull align 8 dereferenceable(24) %6, ptr noundef nonnull align 8 dereferenceable(24) %3)
          to label %_ZN4cvc58internal9ProofNode8setValueENS_9ProofRuleERKSt6vectorISt10shared_ptrIS1_ESaIS5_EERKS3_INS0_12NodeTemplateILb1EEESaISB_EE.exit unwind label %23

_ZN4cvc58internal9ProofNode8setValueENS_9ProofRuleERKSt6vectorISt10shared_ptrIS1_ESaIS5_EERKS3_INS0_12NodeTemplateILb1EEESaISB_EE.exit: ; preds = %.noexc
  ret void

23:                                               ; preds = %.noexc, %18
  %24 = landingpad { ptr, i32 }
          cleanup
  tail call void @_ZN4cvc58internal12NodeTemplateILb1EED2Ev(ptr noundef nonnull align 8 dereferenceable(8) %7) #23
  br label %.body

.body:                                            ; preds = %16, %23
  %.pn = phi { ptr, i32 } [ %24, %23 ], [ %17, %16 ]
  tail call void @_ZNSt6vectorIN4cvc58internal12NodeTemplateILb1EEESaIS3_EED2Ev(ptr noundef nonnull align 8 dereferenceable(24) %6) #23
  tail call void @_ZNSt6vectorISt10shared_ptrIN4cvc58internal9ProofNodeEESaIS4_EED2Ev(ptr noundef nonnull align 8 dereferenceable(24) %5) #23
  resume { ptr, i32 } %.pn
}